target datalayout = "e-m:e-p270:32:32-p271:32:32-p272:64:64-i64:64-i128:128-f80:128-n8:16:32:64-S128"
target triple = "x86_64-pc-linux-gnu"

%struct.hb_array_t = type { ptr, i32, i32 }
%"struct.hb::shared_ptr" = type { ptr }
%struct.hb_subset_input_t = type { %struct.hb_object_header_t, %union.anon, i32, i8, i8, %struct.hb_hashmap_t, %struct.hb_map_t }
%struct.hb_object_header_t = type { %struct.hb_reference_count_t, %struct.hb_atomic_int_t, %struct.hb_atomic_ptr_t }
%struct.hb_reference_count_t = type { %struct.hb_atomic_int_t }
%struct.hb_atomic_int_t = type { i32 }
%struct.hb_atomic_ptr_t = type { ptr }
%union.anon = type { %"struct.hb_subset_input_t::sets_t" }
%"struct.hb_subset_input_t::sets_t" = type { %"struct.hb::shared_ptr", %"struct.hb::shared_ptr", %"struct.hb::shared_ptr", %"struct.hb::shared_ptr", %"struct.hb::shared_ptr", %"struct.hb::shared_ptr", %"struct.hb::shared_ptr", %"struct.hb::shared_ptr" }
%struct.hb_hashmap_t = type { %struct.hb_object_header_t, i8, i16, i32, i32, i32, i32, ptr }
%struct.hb_map_t = type { %struct.hb_hashmap_t.0 }
%struct.hb_hashmap_t.0 = type { %struct.hb_object_header_t, i8, i16, i32, i32, i32, i32, ptr }

@_hb_CrapPool = external hidden global [80 x i64], align 16
@_hb_NullPool = external hidden constant [80 x i64], align 16

; Function Attrs: mustprogress nounwind uwtable
define linkonce_odr dso_local noundef nonnull align 8 dereferenceable(8) ptr @_ZN4NullIN2hb10shared_ptrI8hb_set_tEEE8get_nullEv() #0 comdat align 2 {
  ret ptr @_hb_NullPool
}

; Function Attrs: mustprogress nounwind uwtable
define linkonce_odr dso_local noundef nonnull align 8 dereferenceable(8) ptr @_ZN10NullHelperIN2hb10shared_ptrI8hb_set_tEEE8get_nullEv() #0 comdat align 2 {
  %1 = call noundef nonnull align 8 dereferenceable(8) ptr @_ZN4NullIN2hb10shared_ptrI8hb_set_tEEE8get_nullEv()
  ret ptr %1
}

; Function Attrs: inlinehint mustprogress nounwind uwtable
define internal noundef nonnull align 8 dereferenceable(8) ptr @_ZL4CrapIN2hb10shared_ptrI8hb_set_tEEERT_v() #1 {
  %1 = alloca ptr, align 8
  call void @llvm.lifetime.start.p0(i64 8, ptr %1) #13
  store ptr @_hb_CrapPool, ptr %1, align 8, !tbaa !27
  %2 = load ptr, ptr %1, align 8, !tbaa !27
  %3 = call noundef nonnull align 8 dereferenceable(8) ptr @_ZN10NullHelperIN2hb10shared_ptrI8hb_set_tEEE8get_nullEv()
  call void @llvm.memcpy.p0.p0.i64(ptr align 1 %2, ptr align 8 %3, i64 8, i1 false)
  %4 = load ptr, ptr %1, align 8, !tbaa !27
  call void @llvm.lifetime.end.p0(i64 8, ptr %1) #13
  ret ptr %4
}

; Function Attrs: mustprogress nounwind uwtable
define linkonce_odr dso_local noundef nonnull align 8 dereferenceable(8) ptr @_ZN10CrapHelperIN2hb10shared_ptrI8hb_set_tEEE8get_crapEv() #0 comdat align 2 {
  %1 = call noundef nonnull align 8 dereferenceable(8) ptr @_ZL4CrapIN2hb10shared_ptrI8hb_set_tEEERT_v()
  ret ptr %1
}

; Function Attrs: mustprogress nounwind uwtable
define linkonce_odr dso_local void @_ZN10hb_array_tIN2hb10shared_ptrI8hb_set_tEEEC2EPS3_j(ptr noundef nonnull align 8 dereferenceable(16) %0, ptr noundef %1, i32 noundef %2) unnamed_addr #0 comdat align 2 {
  %4 = alloca ptr, align 8
  %5 = alloca ptr, align 8
  %6 = alloca i32, align 4
  store ptr %0, ptr %4, align 8, !tbaa !25
  store ptr %1, ptr %5, align 8, !tbaa !27
  store i32 %2, ptr %6, align 4, !tbaa !43
  %7 = load ptr, ptr %4, align 8
  %8 = getelementptr inbounds nuw %struct.hb_array_t, ptr %7, i32 0, i32 0
  %9 = load ptr, ptr %5, align 8, !tbaa !27
  store ptr %9, ptr %8, align 8, !tbaa !36
  %10 = getelementptr inbounds nuw %struct.hb_array_t, ptr %7, i32 0, i32 1
  %11 = load i32, ptr %6, align 4, !tbaa !43
  store i32 %11, ptr %10, align 8, !tbaa !38
  %12 = getelementptr inbounds nuw %struct.hb_array_t, ptr %7, i32 0, i32 2
  store i32 0, ptr %12, align 4, !tbaa !121
  ret void
}

; Function Attrs: mustprogress nounwind uwtable
define linkonce_odr dso_local noundef nonnull align 8 dereferenceable(8) ptr @_ZN16CrapOrNullHelperIN2hb10shared_ptrI8hb_set_tEEE3getEv() #0 comdat align 2 {
  %1 = call noundef nonnull align 8 dereferenceable(8) ptr @_ZN10CrapHelperIN2hb10shared_ptrI8hb_set_tEEE8get_crapEv()
  ret ptr %1
}

; Function Attrs: mustprogress nounwind uwtable
define linkonce_odr dso_local void @_ZN10hb_array_tIN2hb10shared_ptrI8hb_set_tEEEC2ILj8EEERAT__S3_(ptr noundef nonnull align 8 dereferenceable(16) %0, ptr noundef nonnull align 8 dereferenceable(64) %1) unnamed_addr #0 comdat align 2 {
  %3 = alloca ptr, align 8
  %4 = alloca ptr, align 8
  store ptr %0, ptr %3, align 8, !tbaa !25
  store ptr %1, ptr %4, align 8, !tbaa !27
  %5 = load ptr, ptr %3, align 8
  %6 = load ptr, ptr %4, align 8, !tbaa !27
  %7 = getelementptr inbounds [8 x %"struct.hb::shared_ptr"], ptr %6, i64 0, i64 0
  call void @_ZN10hb_array_tIN2hb10shared_ptrI8hb_set_tEEEC2EPS3_j(ptr noundef nonnull align 8 dereferenceable(16) %5, ptr noundef %7, i32 noundef 8)
  ret void
}

; Function Attrs: mustprogress nounwind uwtable
define linkonce_odr dso_local noundef nonnull align 8 dereferenceable(8) ptr @_ZNK10hb_array_tIN2hb10shared_ptrI8hb_set_tEEE11__item_at__Ej(ptr noundef nonnull align 8 dereferenceable(16) %0, i32 noundef %1) #0 comdat align 2 {
  %3 = alloca ptr, align 8
  %4 = alloca ptr, align 8
  %5 = alloca i32, align 4
  store ptr %0, ptr %4, align 8, !tbaa !25
  store i32 %1, ptr %5, align 4, !tbaa !43
  %6 = load ptr, ptr %4, align 8
  %7 = load i32, ptr %5, align 4, !tbaa !43
  %8 = getelementptr inbounds nuw %struct.hb_array_t, ptr %6, i32 0, i32 1
  %9 = load i32, ptr %8, align 8, !tbaa !38
  %10 = icmp uge i32 %7, %9
  %11 = zext i1 %10 to i64
  %12 = call i64 @llvm.expect.i64(i64 %11, i64 0)
  %13 = icmp ne i64 %12, 0
  br i1 %13, label %14, label %16

14:                                               ; preds = %2
  %15 = call noundef nonnull align 8 dereferenceable(8) ptr @_ZN16CrapOrNullHelperIN2hb10shared_ptrI8hb_set_tEEE3getEv()
  store ptr %15, ptr %3, align 8
  br label %22

16:                                               ; preds = %2
  %17 = getelementptr inbounds nuw %struct.hb_array_t, ptr %6, i32 0, i32 0
  %18 = load ptr, ptr %17, align 8, !tbaa !36
  %19 = load i32, ptr %5, align 4, !tbaa !43
  %20 = zext i32 %19 to i64
  %21 = getelementptr inbounds nuw %"struct.hb::shared_ptr", ptr %18, i64 %20
  store ptr %21, ptr %3, align 8
  br label %22

22:                                               ; preds = %16, %14
  %23 = load ptr, ptr %3, align 8
  ret ptr %23
}

; Function Attrs: mustprogress nounwind uwtable
define linkonce_odr dso_local noundef ptr @_ZN9hb_iter_tI10hb_array_tIN2hb10shared_ptrI8hb_set_tEEERS4_E4thizEv(ptr noundef nonnull align 1 dereferenceable(1) %0) #0 comdat align 2 {
  %2 = alloca ptr, align 8
  store ptr %0, ptr %2, align 8, !tbaa !52
  %3 = load ptr, ptr %2, align 8
  ret ptr %3
}

; Function Attrs: inlinehint mustprogress nounwind uwtable
define linkonce_odr dso_local { ptr, i64 } @_Z8hb_arrayIN2hb10shared_ptrI8hb_set_tEELj8EE10hb_array_tIT_ERAT0__S5_(ptr noundef nonnull align 8 dereferenceable(64) %0) #1 comdat {
  %2 = alloca %struct.hb_array_t, align 8
  %3 = alloca ptr, align 8
  store ptr %0, ptr %3, align 8, !tbaa !27
  %4 = load ptr, ptr %3, align 8, !tbaa !27
  call void @_ZN10hb_array_tIN2hb10shared_ptrI8hb_set_tEEEC2ILj8EEERAT__S3_(ptr noundef nonnull align 8 dereferenceable(16) %2, ptr noundef nonnull align 8 dereferenceable(64) %4)
  %5 = load { ptr, i64 }, ptr %2, align 8
  ret { ptr, i64 } %5
}

; Function Attrs: mustprogress nounwind uwtable
define linkonce_odr dso_local noundef ptr @_ZNK2hb10shared_ptrI8hb_set_tEcvPS1_Ev(ptr noundef nonnull align 8 dereferenceable(8) %0) #0 comdat align 2 {
  %2 = alloca ptr, align 8
  store ptr %0, ptr %2, align 8, !tbaa !27
  %3 = load ptr, ptr %2, align 8
  %4 = getelementptr inbounds nuw %"struct.hb::shared_ptr", ptr %3, i32 0, i32 0
  %5 = load ptr, ptr %4, align 8, !tbaa !41
  ret ptr %5
}

; Function Attrs: mustprogress nounwind uwtable
define linkonce_odr dso_local noundef nonnull align 8 dereferenceable(8) ptr @_ZN9hb_iter_tI10hb_array_tIN2hb10shared_ptrI8hb_set_tEEERS4_EixEj(ptr noundef nonnull align 1 dereferenceable(1) %0, i32 noundef %1) #0 comdat align 2 {
  %3 = alloca ptr, align 8
  %4 = alloca i32, align 4
  store ptr %0, ptr %3, align 8, !tbaa !52
  store i32 %1, ptr %4, align 4, !tbaa !43
  %5 = load ptr, ptr %3, align 8
  %6 = call noundef ptr @_ZN9hb_iter_tI10hb_array_tIN2hb10shared_ptrI8hb_set_tEEERS4_E4thizEv(ptr noundef nonnull align 1 dereferenceable(1) %5)
  %7 = load i32, ptr %4, align 4, !tbaa !43
  %8 = call noundef nonnull align 8 dereferenceable(8) ptr @_ZNK10hb_array_tIN2hb10shared_ptrI8hb_set_tEEE11__item_at__Ej(ptr noundef nonnull align 8 dereferenceable(16) %6, i32 noundef %7)
  ret ptr %8
}

; Function Attrs: inlinehint mustprogress nounwind uwtable
define linkonce_odr dso_local { ptr, i64 } @_ZN17hb_subset_input_t9sets_iterEv(ptr noundef nonnull align 8 dereferenceable(184) %0) #1 comdat align 2 {
  %2 = alloca %struct.hb_array_t, align 8
  %3 = alloca ptr, align 8
  store ptr %0, ptr %3, align 8, !tbaa !4
  %4 = load ptr, ptr %3, align 8
  %5 = getelementptr inbounds nuw %struct.hb_subset_input_t, ptr %4, i32 0, i32 1
  %6 = call { ptr, i64 } @_Z8hb_arrayIN2hb10shared_ptrI8hb_set_tEELj8EE10hb_array_tIT_ERAT0__S5_(ptr noundef nonnull align 8 dereferenceable(64) %5)
  %7 = getelementptr inbounds nuw { ptr, i64 }, ptr %2, i32 0, i32 0
  %8 = extractvalue { ptr, i64 } %6, 0
  store ptr %8, ptr %7, align 8
  %9 = getelementptr inbounds nuw { ptr, i64 }, ptr %2, i32 0, i32 1
  %10 = extractvalue { ptr, i64 } %6, 1
  store i64 %10, ptr %9, align 8
  %11 = load { ptr, i64 }, ptr %2, align 8
  ret { ptr, i64 } %11
}

; Function Attrs: mustprogress nounwind uwtable
define dso_local ptr @hb_subset_input_set(ptr noundef %0, i32 noundef %1) #0 {
  %3 = alloca ptr, align 8
  %4 = alloca i32, align 4
  %5 = alloca %struct.hb_array_t, align 8
  store ptr %0, ptr %3, align 8, !tbaa !4
  store i32 %1, ptr %4, align 4, !tbaa !50
  call void @llvm.lifetime.start.p0(i64 16, ptr %5) #13
  %6 = load ptr, ptr %3, align 8, !tbaa !4
  %7 = call { ptr, i64 } @_ZN17hb_subset_input_t9sets_iterEv(ptr noundef nonnull align 8 dereferenceable(184) %6)
  %8 = getelementptr inbounds nuw { ptr, i64 }, ptr %5, i32 0, i32 0
  %9 = extractvalue { ptr, i64 } %7, 0
  store ptr %9, ptr %8, align 8
  %10 = getelementptr inbounds nuw { ptr, i64 }, ptr %5, i32 0, i32 1
  %11 = extractvalue { ptr, i64 } %7, 1
  store i64 %11, ptr %10, align 8
  %12 = load i32, ptr %4, align 4, !tbaa !50
  %13 = call noundef nonnull align 8 dereferenceable(8) ptr @_ZN9hb_iter_tI10hb_array_tIN2hb10shared_ptrI8hb_set_tEEERS4_EixEj(ptr noundef nonnull align 1 dereferenceable(1) %5, i32 noundef %12)
  %14 = call noundef ptr @_ZNK2hb10shared_ptrI8hb_set_tEcvPS1_Ev(ptr noundef nonnull align 8 dereferenceable(8) %13)
  call void @llvm.lifetime.end.p0(i64 16, ptr %5) #13
  ret ptr %14
}