; Function Attrs: mustprogress nofree norecurse nosync nounwind willreturn memory(write, argmem: read, inaccessiblemem: none) uwtable
define dso_local ptr @hb_subset_input_set(ptr noundef readonly captures(none) %0, i32 noundef %1) local_unnamed_addr #7 {
  %.not.i.i = icmp ult i32 %1, 8
  br i1 %.not.i.i, label %6, label %3, !prof !40

3:                                                ; preds = %2
  %4 = load i64, ptr @_hb_NullPool, align 16
  store i64 %4, ptr @_hb_CrapPool, align 16
  %5 = inttoptr i64 %4 to ptr
  br label %_ZN9hb_iter_tI10hb_array_tIN2hb10shared_ptrI8hb_set_tEEERS4_EixEj.exit

6:                                                ; preds = %2
  %7 = getelementptr inbounds nuw i8, ptr %0, i64 16
  %8 = zext nneg i32 %1 to i64
  %9 = getelementptr inbounds nuw %"struct.hb::shared_ptr", ptr %7, i64 %8
  %.pre = load ptr, ptr %9, align 8, !tbaa !29
  br label %_ZN9hb_iter_tI10hb_array_tIN2hb10shared_ptrI8hb_set_tEEERS4_EixEj.exit

_ZN9hb_iter_tI10hb_array_tIN2hb10shared_ptrI8hb_set_tEEERS4_EixEj.exit: ; preds = %3, %6
  %10 = phi ptr [ %5, %3 ], [ %.pre, %6 ]
  ret ptr %10
}